target datalayout = "e-m:e-p270:32:32-p271:32:32-p272:64:64-i64:64-i128:128-f80:128-n8:16:32:64-S128"
target triple = "x86_64-pc-linux-gnu"

; Function Attrs: inlinehint nounwind uwtable
define internal float @lerpf(float noundef %0, float noundef %1, float noundef %2) #10 {
  %4 = alloca float, align 4
  %5 = alloca float, align 4
  %6 = alloca float, align 4
  store float %0, ptr %4, align 4, !tbaa !67
  store float %1, ptr %5, align 4, !tbaa !67
  store float %2, ptr %6, align 4, !tbaa !67
  %7 = load float, ptr %4, align 4, !tbaa !67
  %8 = load float, ptr %5, align 4, !tbaa !67
  %9 = load float, ptr %4, align 4, !tbaa !67
  %10 = fsub nsz float %8, %9
  %11 = load float, ptr %6, align 4, !tbaa !67
  %12 = call nsz float @llvm.fmuladd.f32(float %10, float %11, float %7)
  ret float %12
}

; Function Attrs: nounwind uwtable
define internal void @pseudocolor_filter_16(i32 noundef %0, i32 noundef %1, i32 noundef %2, ptr noundef %3, ptr noundef %4, ptr noundef %5, i64 noundef %6, i64 noundef %7, i64 noundef %8, ptr noundef %9, float noundef %10) #1 {
  %12 = alloca i32, align 4
  %13 = alloca i32, align 4
  %14 = alloca i32, align 4
  %15 = alloca ptr, align 8
  %16 = alloca ptr, align 8
  %17 = alloca ptr, align 8
  %18 = alloca i64, align 8
  %19 = alloca i64, align 8
  %20 = alloca i64, align 8
  %21 = alloca ptr, align 8
  %22 = alloca float, align 4
  %23 = alloca ptr, align 8
  %24 = alloca ptr, align 8
  %25 = alloca ptr, align 8
  %26 = alloca i32, align 4
  %27 = alloca i32, align 4
  %28 = alloca i32, align 4
  store i32 %0, ptr %12, align 4, !tbaa !24
  store i32 %1, ptr %13, align 4, !tbaa !24
  store i32 %2, ptr %14, align 4, !tbaa !24
  store ptr %3, ptr %15, align 8, !tbaa !29
  store ptr %4, ptr %16, align 8, !tbaa !29
  store ptr %5, ptr %17, align 8, !tbaa !29
  store i64 %6, ptr %18, align 8, !tbaa !91
  store i64 %7, ptr %19, align 8, !tbaa !91
  store i64 %8, ptr %20, align 8, !tbaa !91
  store ptr %9, ptr %21, align 8, !tbaa !96
  store float %10, ptr %22, align 4, !tbaa !67
  call void @llvm.lifetime.start.p0(i64 8, ptr %23) #11
  %29 = load ptr, ptr %15, align 8, !tbaa !29
  store ptr %29, ptr %23, align 8, !tbaa !108
  call void @llvm.lifetime.start.p0(i64 8, ptr %24) #11
  %30 = load ptr, ptr %16, align 8, !tbaa !29
  store ptr %30, ptr %24, align 8, !tbaa !108
  call void @llvm.lifetime.start.p0(i64 8, ptr %25) #11
  %31 = load ptr, ptr %17, align 8, !tbaa !29
  store ptr %31, ptr %25, align 8, !tbaa !108
  call void @llvm.lifetime.start.p0(i64 4, ptr %26) #11
  call void @llvm.lifetime.start.p0(i64 4, ptr %27) #11
  store i32 0, ptr %27, align 4, !tbaa !24
  br label %32

32:                                               ; preds = %101, %11
  %33 = load i32, ptr %27, align 4, !tbaa !24
  %34 = load i32, ptr %14, align 4, !tbaa !24
  %35 = icmp slt i32 %33, %34
  br i1 %35, label %36, label %104

36:                                               ; preds = %32
  store i32 0, ptr %26, align 4, !tbaa !24
  br label %37

37:                                               ; preds = %85, %36
  %38 = load i32, ptr %26, align 4, !tbaa !24
  %39 = load i32, ptr %13, align 4, !tbaa !24
  %40 = icmp slt i32 %38, %39
  br i1 %40, label %41, label %88

41:                                               ; preds = %37
  call void @llvm.lifetime.start.p0(i64 4, ptr %28) #11
  %42 = load ptr, ptr %21, align 8, !tbaa !96
  %43 = load ptr, ptr %23, align 8, !tbaa !108
  %44 = load i32, ptr %26, align 4, !tbaa !24
  %45 = sext i32 %44 to i64
  %46 = getelementptr inbounds i16, ptr %43, i64 %45
  %47 = load i16, ptr %46, align 2, !tbaa !110
  %48 = zext i16 %47 to i64
  %49 = getelementptr inbounds nuw float, ptr %42, i64 %48
  %50 = load float, ptr %49, align 4, !tbaa !67
  %51 = fptosi float %50 to i32
  store i32 %51, ptr %28, align 4, !tbaa !24
  %52 = load i32, ptr %28, align 4, !tbaa !24
  %53 = icmp sge i32 %52, 0
  br i1 %53, label %54, label %74

54:                                               ; preds = %41
  %55 = load i32, ptr %28, align 4, !tbaa !24
  %56 = load i32, ptr %12, align 4, !tbaa !24
  %57 = icmp sle i32 %55, %56
  br i1 %57, label %58, label %74

58:                                               ; preds = %54
  %59 = load ptr, ptr %24, align 8, !tbaa !108
  %60 = load i32, ptr %26, align 4, !tbaa !24
  %61 = sext i32 %60 to i64
  %62 = getelementptr inbounds i16, ptr %59, i64 %61
  %63 = load i16, ptr %62, align 2, !tbaa !110
  %64 = uitofp i16 %63 to float
  %65 = load i32, ptr %28, align 4, !tbaa !24
  %66 = sitofp i32 %65 to float
  %67 = load float, ptr %22, align 4, !tbaa !67
  %68 = call nsz float @lerpf(float noundef %64, float noundef %66, float noundef %67)
  %69 = fptoui float %68 to i16
  %70 = load ptr, ptr %25, align 8, !tbaa !108
  %71 = load i32, ptr %26, align 4, !tbaa !24
  %72 = sext i32 %71 to i64
  %73 = getelementptr inbounds i16, ptr %70, i64 %72
  store i16 %69, ptr %73, align 2, !tbaa !110
  br label %84

74:                                               ; preds = %54, %41
  %75 = load ptr, ptr %24, align 8, !tbaa !108
  %76 = load i32, ptr %26, align 4, !tbaa !24
  %77 = sext i32 %76 to i64
  %78 = getelementptr inbounds i16, ptr %75, i64 %77
  %79 = load i16, ptr %78, align 2, !tbaa !110
  %80 = load ptr, ptr %25, align 8, !tbaa !108
  %81 = load i32, ptr %26, align 4, !tbaa !24
  %82 = sext i32 %81 to i64
  %83 = getelementptr inbounds i16, ptr %80, i64 %82
  store i16 %79, ptr %83, align 2, !tbaa !110
  br label %84

84:                                               ; preds = %74, %58
  call void @llvm.lifetime.end.p0(i64 4, ptr %28) #11
  br label %85

85:                                               ; preds = %84
  %86 = load i32, ptr %26, align 4, !tbaa !24
  %87 = add nsw i32 %86, 1
  store i32 %87, ptr %26, align 4, !tbaa !24
  br label %37, !llvm.loop !112

88:                                               ; preds = %37
  %89 = load i64, ptr %18, align 8, !tbaa !91
  %90 = sdiv i64 %89, 2
  %91 = load ptr, ptr %23, align 8, !tbaa !108
  %92 = getelementptr inbounds i16, ptr %91, i64 %90
  store ptr %92, ptr %23, align 8, !tbaa !108
  %93 = load i64, ptr %19, align 8, !tbaa !91
  %94 = sdiv i64 %93, 2
  %95 = load ptr, ptr %24, align 8, !tbaa !108
  %96 = getelementptr inbounds i16, ptr %95, i64 %94
  store ptr %96, ptr %24, align 8, !tbaa !108
  %97 = load i64, ptr %20, align 8, !tbaa !91
  %98 = sdiv i64 %97, 2
  %99 = load ptr, ptr %25, align 8, !tbaa !108
  %100 = getelementptr inbounds i16, ptr %99, i64 %98
  store ptr %100, ptr %25, align 8, !tbaa !108
  br label %101

101:                                              ; preds = %88
  %102 = load i32, ptr %27, align 4, !tbaa !24
  %103 = add nsw i32 %102, 1
  store i32 %103, ptr %27, align 4, !tbaa !24
  br label %32, !llvm.loop !113

104:                                              ; preds = %32
  call void @llvm.lifetime.end.p0(i64 4, ptr %27) #11
  call void @llvm.lifetime.end.p0(i64 4, ptr %26) #11
  call void @llvm.lifetime.end.p0(i64 8, ptr %25) #11
  call void @llvm.lifetime.end.p0(i64 8, ptr %24) #11
  call void @llvm.lifetime.end.p0(i64 8, ptr %23) #11
  ret void
}