; Function Attrs: nofree norecurse nosync nounwind memory(argmem: readwrite) uwtable
define internal void @pseudocolor_filter_16(i32 noundef %0, i32 noundef %1, i32 noundef %2, ptr noundef readonly captures(none) %3, ptr noundef readonly captures(none) %4, ptr noundef writeonly captures(none) %5, i64 noundef %6, i64 noundef %7, i64 noundef %8, ptr noundef readonly captures(none) %9, float noundef %10) #8 {
  %12 = icmp sgt i32 %2, 0
  br i1 %12, label %.preheader.lr.ph, label %._crit_edge40

.preheader.lr.ph:                                 ; preds = %11
  %13 = icmp sgt i32 %1, 0
  %14 = sdiv i64 %6, 2
  %15 = sdiv i64 %7, 2
  %16 = sdiv i64 %8, 2
  br i1 %13, label %.preheader.us.preheader, label %._crit_edge40

.preheader.us.preheader:                          ; preds = %.preheader.lr.ph
  %wide.trip.count = zext nneg i32 %1 to i64
  br label %.preheader.us

.preheader.us:                                    ; preds = %.preheader.us.preheader, %._crit_edge.us
  %.039.us = phi ptr [ %35, %._crit_edge.us ], [ %3, %.preheader.us.preheader ]
  %.03038.us = phi i32 [ %38, %._crit_edge.us ], [ 0, %.preheader.us.preheader ]
  %.03237.us = phi ptr [ %37, %._crit_edge.us ], [ %5, %.preheader.us.preheader ]
  %.03336.us = phi ptr [ %36, %._crit_edge.us ], [ %4, %.preheader.us.preheader ]
  br label %17

17:                                               ; preds = %.preheader.us, %33
  %indvars.iv = phi i64 [ 0, %.preheader.us ], [ %indvars.iv.next, %33 ]
  %18 = getelementptr inbounds nuw i16, ptr %.039.us, i64 %indvars.iv
  %19 = load i16, ptr %18, align 2, !tbaa !93
  %20 = zext i16 %19 to i64
  %21 = getelementptr inbounds nuw float, ptr %9, i64 %20
  %22 = load float, ptr %21, align 4, !tbaa !62
  %23 = fptosi float %22 to i32
  %24 = icmp slt i32 %23, 0
  %.not.us = icmp slt i32 %0, %23
  %or.cond.us = or i1 %24, %.not.us
  %25 = getelementptr inbounds nuw i16, ptr %.03336.us, i64 %indvars.iv
  %26 = load i16, ptr %25, align 2, !tbaa !93
  br i1 %or.cond.us, label %33, label %27

27:                                               ; preds = %17
  %28 = uitofp i16 %26 to float
  %29 = uitofp nneg i32 %23 to float
  %30 = fsub nsz float %29, %28
  %31 = tail call nsz noundef float @llvm.fmuladd.f32(float %30, float %10, float %28)
  %32 = fptoui float %31 to i16
  br label %33

33:                                               ; preds = %17, %27
  %.sink = phi i16 [ %32, %27 ], [ %26, %17 ]
  %34 = getelementptr inbounds nuw i16, ptr %.03237.us, i64 %indvars.iv
  store i16 %.sink, ptr %34, align 2, !tbaa !93
  %indvars.iv.next = add nuw nsw i64 %indvars.iv, 1
  %exitcond.not = icmp eq i64 %indvars.iv.next, %wide.trip.count
  br i1 %exitcond.not, label %._crit_edge.us, label %17, !llvm.loop !95

._crit_edge.us:                                   ; preds = %33
  %35 = getelementptr inbounds i16, ptr %.039.us, i64 %14
  %36 = getelementptr inbounds i16, ptr %.03336.us, i64 %15
  %37 = getelementptr inbounds i16, ptr %.03237.us, i64 %16
  %38 = add nuw nsw i32 %.03038.us, 1
  %exitcond43.not = icmp eq i32 %38, %2
  br i1 %exitcond43.not, label %._crit_edge40, label %.preheader.us, !llvm.loop !96

._crit_edge40:                                    ; preds = %._crit_edge.us, %.preheader.lr.ph, %11
  ret void
}